target datalayout = "e-m:e-p270:32:32-p271:32:32-p272:64:64-i64:64-i128:128-f80:128-n8:16:32:64-S128"
target triple = "x86_64-pc-linux-gnu"

%struct.rb_data_type_struct = type { ptr, %struct.anon, ptr, ptr, i64 }
%struct.anon = type { ptr, ptr, ptr, ptr, [1 x ptr] }
%struct.time_object = type { i64, %struct.vtm }
%struct.vtm = type { i64, i64, i64, i64, i64 }
%struct.timespec = type { i64, i64 }
%struct.timeval = type { i64, i64 }

@time_data_type = internal constant %struct.rb_data_type_struct { ptr @.str.96, %struct.anon { ptr @time_mark, ptr inttoptr (i64 -1 to ptr), ptr null, ptr null, [1 x ptr] zeroinitializer }, ptr null, ptr null, i64 291 }, align 8
@rb_eTypeError = external global i64, align 8
@.str.92 = private unnamed_addr constant [19 x i8] c"uninitialized %li\0B\00", align 1

; Function Attrs: nounwind sspstrong uwtable
define internal { i64, i64 } @time_timeval(i64 noundef %0, i32 noundef %1) #0 {
  %3 = alloca %struct.timeval, align 8
  %4 = alloca i64, align 8
  %5 = alloca i32, align 4
  %6 = alloca %struct.timespec, align 8
  %7 = alloca %struct.timespec, align 8
  store i64 %0, ptr %4, align 8, !tbaa !11
  store i32 %1, ptr %5, align 4, !tbaa !20
  call void @llvm.lifetime.start.p0(i64 16, ptr %6) #22
  call void @llvm.lifetime.start.p0(i64 16, ptr %7) #22
  %8 = load i64, ptr %4, align 8, !tbaa !11
  %9 = load i32, ptr %5, align 4, !tbaa !20
  %10 = call { i64, i64 } @time_timespec(i64 noundef %8, i32 noundef %9)
  %11 = getelementptr inbounds nuw { i64, i64 }, ptr %7, i32 0, i32 0
  %12 = extractvalue { i64, i64 } %10, 0
  store i64 %12, ptr %11, align 8
  %13 = getelementptr inbounds nuw { i64, i64 }, ptr %7, i32 0, i32 1
  %14 = extractvalue { i64, i64 } %10, 1
  store i64 %14, ptr %13, align 8
  call void @llvm.memcpy.p0.p0.i64(ptr align 8 %6, ptr align 8 %7, i64 16, i1 false), !tbaa.struct !39
  call void @llvm.lifetime.end.p0(i64 16, ptr %7) #22
  %15 = getelementptr inbounds nuw %struct.timespec, ptr %6, i32 0, i32 0
  %16 = load i64, ptr %15, align 8, !tbaa !22
  %17 = getelementptr inbounds nuw %struct.timeval, ptr %3, i32 0, i32 0
  store i64 %16, ptr %17, align 8, !tbaa !40
  %18 = getelementptr inbounds nuw %struct.timespec, ptr %6, i32 0, i32 1
  %19 = load i64, ptr %18, align 8, !tbaa !24
  %20 = sdiv i64 %19, 1000
  %21 = trunc i64 %20 to i32
  %22 = sext i32 %21 to i64
  %23 = getelementptr inbounds nuw %struct.timeval, ptr %3, i32 0, i32 1
  store i64 %22, ptr %23, align 8, !tbaa !42
  call void @llvm.lifetime.end.p0(i64 16, ptr %6) #22
  %24 = load { i64, i64 }, ptr %3, align 8
  ret { i64, i64 } %24
}

; Function Attrs: nounwind sspstrong uwtable
define internal ptr @get_timeval(i64 noundef %0) #0 {
  %2 = alloca i64, align 8
  %3 = alloca ptr, align 8
  store i64 %0, ptr %2, align 8, !tbaa !11
  call void @llvm.lifetime.start.p0(i64 8, ptr %3) #22
  %4 = load i64, ptr %2, align 8, !tbaa !11
  %5 = call ptr @rb_check_typeddata(i64 noundef %4, ptr noundef @time_data_type)
  store ptr %5, ptr %3, align 8, !tbaa !18
  %6 = load ptr, ptr %3, align 8, !tbaa !18
  %7 = getelementptr inbounds nuw %struct.time_object, ptr %6, i32 0, i32 1
  %8 = getelementptr inbounds nuw %struct.vtm, ptr %7, i32 0, i32 4
  %9 = load i64, ptr %8, align 8
  %10 = lshr i64 %9, 43
  %11 = and i64 %10, 7
  %12 = trunc i64 %11 to i32
  %13 = icmp ne i32 %12, 3
  br i1 %13, label %18, label %14

14:                                               ; preds = %1
  %15 = load i64, ptr @rb_eTypeError, align 8, !tbaa !11
  %16 = load i64, ptr %2, align 8, !tbaa !11
  %17 = call i64 @rb_obj_class(i64 noundef %16)
  call void (i64, ptr, ...) @rb_raise(i64 noundef %15, ptr noundef @.str.92, i64 noundef %17) #23
  unreachable

18:                                               ; preds = %1
  %19 = load ptr, ptr %3, align 8, !tbaa !18
  call void @llvm.lifetime.end.p0(i64 8, ptr %3) #22
  ret ptr %19
}

; Function Attrs: nounwind sspstrong uwtable
define dso_local { i64, i64 } @rb_time_timeval(i64 noundef %0) #0 {
  %2 = alloca %struct.timeval, align 8
  %3 = alloca i64, align 8
  %4 = alloca ptr, align 8
  %5 = alloca %struct.timeval, align 8
  %6 = alloca %struct.timespec, align 8
  %7 = alloca %struct.timespec, align 8
  %8 = alloca i32, align 4
  store i64 %0, ptr %3, align 8, !tbaa !11
  call void @llvm.lifetime.start.p0(i64 8, ptr %4) #22
  call void @llvm.lifetime.start.p0(i64 16, ptr %5) #22
  call void @llvm.lifetime.start.p0(i64 16, ptr %6) #22
  %9 = load i64, ptr %3, align 8, !tbaa !11
  %10 = call i32 @rb_typeddata_is_kind_of(i64 noundef %9, ptr noundef @time_data_type)
  %11 = icmp ne i32 %10, 0
  br i1 %11, label %12, label %32

12:                                               ; preds = %1
  %13 = load i64, ptr %3, align 8, !tbaa !11
  %14 = call ptr @get_timeval(i64 noundef %13)
  store ptr %14, ptr %4, align 8, !tbaa !18
  call void @llvm.lifetime.start.p0(i64 16, ptr %7) #22
  %15 = load ptr, ptr %4, align 8, !tbaa !18
  %16 = getelementptr inbounds nuw %struct.time_object, ptr %15, i32 0, i32 0
  %17 = load i64, ptr %16, align 8, !tbaa !33
  %18 = call { i64, i64 } @timew2timespec(i64 noundef %17)
  %19 = getelementptr inbounds nuw { i64, i64 }, ptr %7, i32 0, i32 0
  %20 = extractvalue { i64, i64 } %18, 0
  store i64 %20, ptr %19, align 8
  %21 = getelementptr inbounds nuw { i64, i64 }, ptr %7, i32 0, i32 1
  %22 = extractvalue { i64, i64 } %18, 1
  store i64 %22, ptr %21, align 8
  call void @llvm.memcpy.p0.p0.i64(ptr align 8 %6, ptr align 8 %7, i64 16, i1 false), !tbaa.struct !39
  call void @llvm.lifetime.end.p0(i64 16, ptr %7) #22
  %23 = getelementptr inbounds nuw %struct.timespec, ptr %6, i32 0, i32 0
  %24 = load i64, ptr %23, align 8, !tbaa !22
  %25 = getelementptr inbounds nuw %struct.timeval, ptr %5, i32 0, i32 0
  store i64 %24, ptr %25, align 8, !tbaa !40
  %26 = getelementptr inbounds nuw %struct.timespec, ptr %6, i32 0, i32 1
  %27 = load i64, ptr %26, align 8, !tbaa !24
  %28 = sdiv i64 %27, 1000
  %29 = trunc i64 %28 to i32
  %30 = sext i32 %29 to i64
  %31 = getelementptr inbounds nuw %struct.timeval, ptr %5, i32 0, i32 1
  store i64 %30, ptr %31, align 8, !tbaa !42
  call void @llvm.memcpy.p0.p0.i64(ptr align 8 %2, ptr align 8 %5, i64 16, i1 false), !tbaa.struct !39
  store i32 1, ptr %8, align 4
  br label %39

32:                                               ; preds = %1
  %33 = load i64, ptr %3, align 8, !tbaa !11
  %34 = call { i64, i64 } @time_timeval(i64 noundef %33, i32 noundef 0)
  %35 = getelementptr inbounds nuw { i64, i64 }, ptr %2, i32 0, i32 0
  %36 = extractvalue { i64, i64 } %34, 0
  store i64 %36, ptr %35, align 8
  %37 = getelementptr inbounds nuw { i64, i64 }, ptr %2, i32 0, i32 1
  %38 = extractvalue { i64, i64 } %34, 1
  store i64 %38, ptr %37, align 8
  store i32 1, ptr %8, align 4
  br label %39

39:                                               ; preds = %32, %12
  call void @llvm.lifetime.end.p0(i64 16, ptr %6) #22
  call void @llvm.lifetime.end.p0(i64 16, ptr %5) #22
  call void @llvm.lifetime.end.p0(i64 8, ptr %4) #22
  %40 = load { i64, i64 }, ptr %2, align 8
  ret { i64, i64 } %40
}