; Function Attrs: nounwind sspstrong uwtable
define dso_local { i64, i64 } @rb_time_timeval(i64 noundef %0) local_unnamed_addr #1 {
  %2 = tail call i32 @rb_typeddata_is_kind_of(i64 noundef %0, ptr noundef nonnull @time_data_type) #21
  %.not = icmp eq i32 %2, 0
  br i1 %.not, label %16, label %3

3:                                                ; preds = %1
  %4 = tail call ptr @rb_check_typeddata(i64 noundef %0, ptr noundef nonnull @time_data_type) #21
  %5 = getelementptr inbounds nuw i8, ptr %4, i64 40
  %6 = load i64, ptr %5, align 8
  %7 = and i64 %6, 61572651155456
  %.not.i = icmp eq i64 %7, 26388279066624
  br i1 %.not.i, label %8, label %get_timeval.exit

8:                                                ; preds = %3
  %9 = load i64, ptr @rb_eTypeError, align 8, !tbaa !11
  %10 = tail call i64 @rb_obj_class(i64 noundef %0) #21
  tail call void (i64, ptr, ...) @rb_raise(i64 noundef %9, ptr noundef nonnull @.str.92, i64 noundef %10) #22
  unreachable

get_timeval.exit:                                 ; preds = %3
  %11 = load i64, ptr %4, align 8, !tbaa !25
  %12 = tail call fastcc { i64, i64 } @timew2timespec(i64 noundef %11)
  %13 = extractvalue { i64, i64 } %12, 1
  %14 = sdiv i64 %13, 1000
  %sext = shl i64 %14, 32
  %15 = ashr exact i64 %sext, 32
  br label %21

16:                                               ; preds = %1
  %17 = tail call fastcc { i64, i64 } @time_timespec(i64 noundef %0, i32 noundef 0)
  %18 = extractvalue { i64, i64 } %17, 1
  %19 = sdiv i64 %18, 1000
  %sext.i = shl i64 %19, 32
  %20 = ashr exact i64 %sext.i, 32
  %.fca.1.insert.i = insertvalue { i64, i64 } %17, i64 %20, 1
  br label %21

21:                                               ; preds = %16, %get_timeval.exit
  %.pn = phi { i64, i64 } [ %12, %get_timeval.exit ], [ %.fca.1.insert.i, %16 ]
  %.sroa.3.0 = phi i64 [ %15, %get_timeval.exit ], [ %20, %16 ]
  %.fca.1.insert = insertvalue { i64, i64 } %.pn, i64 %.sroa.3.0, 1
  ret { i64, i64 } %.fca.1.insert
}